; Function Attrs: nounwind uwtable
define dso_local i32 @qtest_fault_set_packet_plain_listener(ptr noundef initializes((120, 136)) %0, ptr noundef %1, ptr noundef %2) local_unnamed_addr #0 {
  %4 = getelementptr inbounds nuw i8, ptr %0, i64 120
  store ptr %1, ptr %4, align 8, !tbaa !64
  %5 = getelementptr inbounds nuw i8, ptr %0, i64 128
  store ptr %2, ptr %5, align 8, !tbaa !65
  %6 = load ptr, ptr %0, align 8, !tbaa !45
  %7 = tail call i32 @ossl_quic_tserver_set_plain_packet_mutator(ptr noundef %6, ptr noundef nonnull @packet_plain_mutate, ptr noundef nonnull @packet_plain_finish, ptr noundef nonnull %0) #10
  ret i32 %7
}